Certificate:
    Data:
        Version: 3 (0x2)
        Serial Number:
            02:3b:ad:07:d4:40:6f:16:95:e2:41:8a:22:3e:da:09:ec:b2:98:2c
        Signature Algorithm: sha256WithRSAEncryption
        Issuer: C=cu, ST=La Habana, O=PYME, OU=TI, CN=imap.mycubantrip.com/emailAddress=admin@mycubantrip.com
        Validity
            Not Before: Jul 22 16:26:27 2022 GMT
            Not After : Jul 21 16:26:27 2025 GMT
        Subject: C=cu, ST=La Habana, O=PYME, OU=TI, CN=imap.mycubantrip.com/emailAddress=admin@mycubantrip.com
        Subject Public Key Info:
            Public Key Algorithm: rsaEncryption
                RSA Public-Key: (2048 bit)
                Modulus:
                    00:e6:0a:68:1e:80:cf:88:8d:07:a7:df:54:1f:71:
                    5f:bc:0a:f7:5b:7c:bf:24:97:4b:0d:0f:83:d6:1c:
                    40:d8:1e:a8:32:60:0d:6d:19:56:4f:06:5e:ee:ee:
                    d9:f2:d3:c0:35:5b:a6:24:9a:45:d4:b9:0b:f7:11:
                    07:8f:c6:7e:de:61:04:bf:78:b1:b5:50:5f:1d:de:
                    03:68:b8:5d:34:74:3f:c8:16:5e:06:90:cd:97:9a:
                    42:96:74:91:13:6d:65:27:c6:d4:c6:b1:cb:39:0f:
                    e1:f7:02:1d:88:76:07:f4:2e:f4:00:51:95:c2:08:
                    c4:7c:45:27:ee:07:3c:18:c6:ff:05:b9:96:46:dc:
                    bb:e6:23:6a:7d:68:f7:44:bb:12:28:0d:2e:62:e8:
                    9b:e9:5f:8f:3c:18:d9:17:2f:d7:75:df:38:38:2c:
                    b7:f9:e2:bc:74:0e:48:b3:c1:8c:bc:7f:53:49:88:
                    86:a9:5d:8a:95:52:7c:e2:4b:f6:1c:17:5f:80:ff:
                    08:b1:d7:c2:c4:e2:5a:a0:b9:90:52:6b:6e:02:fa:
                    f9:8c:c0:3d:51:d7:68:31:fa:ae:51:c1:bf:9f:24:
                    bf:d7:05:0a:1f:37:3f:52:6f:95:be:e1:05:94:dd:
                    5b:db:38:61:d6:b4:24:de:1c:0f:1a:8d:45:54:f2:
                    4c:f7
                Exponent: 65537 (0x10001)
        X509v3 extensions:
            X509v3 Subject Key Identifier: 
                CA:05:DD:97:80:C6:BC:97:54:4C:41:C0:FA:FE:2D:2A:29:DE:2E:24
            X509v3 Authority Key Identifier: 
                keyid:CA:05:DD:97:80:C6:BC:97:54:4C:41:C0:FA:FE:2D:2A:29:DE:2E:24

            X509v3 Basic Constraints: critical
                CA:TRUE
    Signature Algorithm: sha256WithRSAEncryption
         d1:e8:c1:e3:3b:90:5e:94:e8:02:ab:53:7e:45:df:6d:ae:71:
         a6:d5:76:9a:ea:76:1c:eb:5f:4c:6b:bc:25:0f:9e:f3:b7:f5:
         c5:10:d8:da:74:35:d0:1a:f1:18:e7:61:c1:2e:49:49:7b:4c:
         d1:6b:1d:72:32:8e:f7:3b:ff:b9:6d:5b:74:0f:23:f6:f7:0f:
         54:2b:12:40:b3:30:04:ac:4b:12:3b:9e:7f:41:5c:99:83:cc:
         4f:8d:fc:a6:8b:c1:e5:9f:8b:65:21:e1:22:d0:a4:e8:6f:6a:
         97:40:32:c2:16:c1:59:9f:fb:bf:66:1d:01:40:7f:ce:6f:08:
         35:69:d1:fa:69:97:1e:56:67:ba:89:c7:08:4e:6a:ca:ae:cc:
         40:58:aa:a2:3a:71:0d:e8:75:38:01:82:2e:56:1e:d5:87:2d:
         b2:f2:b8:7a:18:c2:fe:ac:80:a5:98:fe:54:ff:33:19:1a:c2:
         81:8d:80:f9:96:40:7c:2d:72:17:6d:0f:6f:9d:ce:cc:59:26:
         55:cf:71:13:dc:31:66:3a:31:74:dd:ff:4f:cb:81:7f:78:62:
         24:bc:57:2e:ba:34:cb:e1:35:5d:9e:83:18:54:4f:70:d7:3b:
         a3:87:ca:2b:95:e5:af:ad:6d:5d:91:f7:e5:91:ff:fb:60:4b:
         01:0b:67:3a
-----BEGIN CERTIFICATE-----
MIID5zCCAs+gAwIBAgIUAjutB9RAbxaV4kGKIj7aCeyymCwwDQYJKoZIhvcNAQEL
BQAwgYIxCzAJBgNVBAYTAmN1MRIwEAYDVQQIDAlMYSBIYWJhbmExDTALBgNVBAoM
BFBZTUUxCzAJBgNVBAsMAlRJMR0wGwYDVQQDDBRpbWFwLm15Y3ViYW50cmlwLmNv
bTEkMCIGCSqGSIb3DQEJARYVYWRtaW5AbXljdWJhbnRyaXAuY29tMB4XDTIyMDcy
MjE2MjYyN1oXDTI1MDcyMTE2MjYyN1owgYIxCzAJBgNVBAYTAmN1MRIwEAYDVQQI
DAlMYSBIYWJhbmExDTALBgNVBAoMBFBZTUUxCzAJBgNVBAsMAlRJMR0wGwYDVQQD
DBRpbWFwLm15Y3ViYW50cmlwLmNvbTEkMCIGCSqGSIb3DQEJARYVYWRtaW5AbXlj
dWJhbnRyaXAuY29tMIIBIjANBgkqhkiG9w0BAQEFAAOCAQ8AMIIBCgKCAQEA5gpo
HoDPiI0Hp99UH3FfvAr3W3y/JJdLDQ+D1hxA2B6oMmANbRlWTwZe7u7Z8tPANVum
JJpF1LkL9xEHj8Z+3mEEv3ixtVBfHd4DaLhdNHQ/yBZeBpDNl5pClnSRE21lJ8bU
xrHLOQ/h9wIdiHYH9C70AFGVwgjEfEUn7gc8GMb/BbmWRty75iNqfWj3RLsSKA0u
Yuib6V+PPBjZFy/Xdd84OCy3+eK8dA5Is8GMvH9TSYiGqV2KlVJ84kv2HBdfgP8I
sdfCxOJaoLmQUmtuAvr5jMA9UddoMfquUcG/nyS/1wUKHzc/Um+VvuEFlN1b2zhh
1rQk3hwPGo1FVPJM9wIDAQABo1MwUTAdBgNVHQ4EFgQUygXdl4DGvJdUTEHA+v4t
KineLiQwHwYDVR0jBBgwFoAUygXdl4DGvJdUTEHA+v4tKineLiQwDwYDVR0TAQH/
BAUwAwEB/zANBgkqhkiG9w0BAQsFAAOCAQEA0ejB4zuQXpToAqtTfkXfba5xptV2
mup2HOtfTGu8JQ+e87f1xRDY2nQ10BrxGOdhwS5JSXtM0WsdcjKO9zv/uW1bdA8j
9vcPVCsSQLMwBKxLEjuef0FcmYPMT438povB5Z+LZSHhItCk6G9ql0AywhbBWZ/7
v2YdAUB/zm8INWnR+mmXHlZnuonHCE5qyq7MQFiqojpxDeh1OAGCLlYe1YctsvK4
ehjC/qyApZj+VP8zGRrCgY2A+ZZAfC1yF20Pb53OzFkmVc9xE9wxZjoxdN3/T8uB
f3hiJLxXLro0y+E1XZ6DGFRPcNc7o4fKK5Xlr61tXZH35ZH/+2BLAQtnOg==
-----END CERTIFICATE-----
