Certificate:
    Data:
        Version: 3 (0x2)
        Serial Number:
            07:27:0e:b7:94:82:47:1a:93:ea:d1:82:51:29:99:f4:39:2e:11:e8
        Signature Algorithm: sha256WithRSAEncryption
        Issuer: C=cu, ST=La Habana, O=Othar Entrega SURL, OU=Entregas, CN=imap.othar.cu/emailAddress=admin@othar.cu
        Validity
            Not Before: Oct 20 02:37:05 2022 GMT
            Not After : Oct 20 02:37:05 2023 GMT
        Subject: C=cu, ST=La Habana, L=Plaza, O=Othar Entrega SURL, OU=Entregas, CN=imap.othar.cu/emailAddress=admin@othar.cu
        Subject Public Key Info:
            Public Key Algorithm: rsaEncryption
                RSA Public-Key: (2048 bit)
                Modulus:
                    00:ce:08:b9:6b:d8:e8:65:76:5a:fb:fa:46:a2:1a:
                    c4:93:3d:35:09:79:78:c2:97:36:be:44:77:b0:a2:
                    b3:e3:77:2c:4c:98:bb:5b:81:bf:8f:fb:28:5f:73:
                    f4:ca:62:b7:44:ec:16:b4:9c:ed:89:59:df:58:be:
                    8c:97:c0:f1:4e:6c:e2:f8:72:be:dc:4e:ad:bd:1d:
                    33:6a:5f:c7:c8:11:bf:f5:6d:00:25:f3:dc:02:f3:
                    c4:d2:8d:0c:60:c4:fb:c0:cc:04:31:ce:d8:00:b3:
                    03:4a:56:bd:20:4b:07:41:c9:23:84:91:d9:08:86:
                    bb:2e:19:1c:27:95:82:1a:d8:66:3e:5e:f0:c4:bf:
                    1e:bd:26:63:d7:58:bf:c3:a9:da:d4:11:59:3a:6f:
                    8d:06:0d:1e:95:56:de:70:b7:1a:9d:30:b3:d9:67:
                    45:50:1b:58:ea:d5:3a:a3:1f:5d:cc:28:4c:b9:3a:
                    4a:7c:5f:ff:03:4a:ac:13:d5:77:16:72:d8:47:ea:
                    15:62:53:c7:aa:54:19:d3:8b:1e:d1:66:fc:ac:8f:
                    75:34:25:cd:b1:5c:5d:be:a4:d8:d1:bd:f4:48:d9:
                    c6:a7:81:e3:55:98:69:10:f1:4a:6b:4c:d6:31:8e:
                    64:a1:59:32:47:33:d5:22:ac:04:0d:c8:28:68:f0:
                    e9:81
                Exponent: 65537 (0x10001)
        X509v3 extensions:
            X509v3 Basic Constraints: 
                CA:FALSE
            Netscape Comment: 
                OpenSSL Generated Certificate
            X509v3 Subject Key Identifier: 
                7C:52:4A:0F:D6:E4:5A:AC:BA:D4:83:48:0D:0D:88:62:5A:DE:4D:7D
            X509v3 Authority Key Identifier: 
                keyid:0B:5B:CF:96:A8:BA:E2:CE:84:EE:55:66:DC:B8:3D:56:80:91:0A:A2

    Signature Algorithm: sha256WithRSAEncryption
         69:1b:36:21:47:cc:6f:aa:14:88:14:16:32:55:7e:41:cb:34:
         74:4f:af:50:b0:f8:46:e2:96:85:02:fb:0d:3b:72:47:71:b9:
         2a:59:78:ec:81:59:45:16:3f:31:2f:48:e5:2d:37:27:2a:47:
         66:83:53:12:59:62:ab:03:a9:3f:01:b2:c1:10:81:f8:7a:ac:
         26:27:36:e7:8d:08:e4:db:60:9d:dd:ef:e0:c9:b1:79:08:66:
         d8:38:15:f9:3d:9c:b4:47:43:ea:63:df:11:6f:e9:5b:8c:1e:
         fc:f6:43:3f:13:21:1c:f5:77:26:bd:34:be:02:58:96:90:85:
         2b:b4:65:a5:e4:cf:3b:12:09:99:6e:6c:08:3e:ca:21:7b:58:
         c6:81:8d:6b:01:a5:15:fc:3c:5e:db:dc:6e:6c:c9:97:cc:53:
         c8:3a:d3:21:b7:68:fd:91:96:61:46:a4:77:4d:65:0c:65:cd:
         bb:17:56:4a:4e:60:b9:fb:b2:19:98:eb:73:e6:a6:89:a7:c5:
         f8:89:0f:c9:87:5a:7b:26:6d:f3:76:ee:ab:2b:07:94:41:96:
         3f:bd:65:ed:9c:ee:e9:57:3c:52:5c:29:51:ae:79:d0:9b:62:
         2b:0e:aa:82:fb:94:ba:9c:e8:5e:fa:a7:6f:b0:7f:60:2b:3a:
         a6:5d:6b:2d
-----BEGIN CERTIFICATE-----
MIIEKzCCAxOgAwIBAgIUBycOt5SCRxqT6tGCUSmZ9DkuEegwDQYJKoZIhvcNAQEL
BQAwgYgxCzAJBgNVBAYTAmN1MRIwEAYDVQQIDAlMYSBIYWJhbmExGzAZBgNVBAoM
Ek90aGFyIEVudHJlZ2EgU1VSTDERMA8GA1UECwwIRW50cmVnYXMxFjAUBgNVBAMM
DWltYXAub3RoYXIuY3UxHTAbBgkqhkiG9w0BCQEWDmFkbWluQG90aGFyLmN1MB4X
DTIyMTAyMDAyMzcwNVoXDTIzMTAyMDAyMzcwNVowgZgxCzAJBgNVBAYTAmN1MRIw
EAYDVQQIDAlMYSBIYWJhbmExDjAMBgNVBAcMBVBsYXphMRswGQYDVQQKDBJPdGhh
ciBFbnRyZWdhIFNVUkwxETAPBgNVBAsMCEVudHJlZ2FzMRYwFAYDVQQDDA1pbWFw
Lm90aGFyLmN1MR0wGwYJKoZIhvcNAQkBFg5hZG1pbkBvdGhhci5jdTCCASIwDQYJ
KoZIhvcNAQEBBQADggEPADCCAQoCggEBAM4IuWvY6GV2Wvv6RqIaxJM9NQl5eMKX
Nr5Ed7Cis+N3LEyYu1uBv4/7KF9z9Mpit0TsFrSc7YlZ31i+jJfA8U5s4vhyvtxO
rb0dM2pfx8gRv/VtACXz3ALzxNKNDGDE+8DMBDHO2ACzA0pWvSBLB0HJI4SR2QiG
uy4ZHCeVghrYZj5e8MS/Hr0mY9dYv8Op2tQRWTpvjQYNHpVW3nC3Gp0ws9lnRVAb
WOrVOqMfXcwoTLk6Snxf/wNKrBPVdxZy2EfqFWJTx6pUGdOLHtFm/KyPdTQlzbFc
Xb6k2NG99EjZxqeB41WYaRDxSmtM1jGOZKFZMkcz1SKsBA3IKGjw6YECAwEAAaN7
MHkwCQYDVR0TBAIwADAsBglghkgBhvhCAQ0EHxYdT3BlblNTTCBHZW5lcmF0ZWQg
Q2VydGlmaWNhdGUwHQYDVR0OBBYEFHxSSg/W5FqsutSDSA0NiGJa3k19MB8GA1Ud
IwQYMBaAFAtbz5aouuLOhO5VZty4PVaAkQqiMA0GCSqGSIb3DQEBCwUAA4IBAQBp
GzYhR8xvqhSIFBYyVX5ByzR0T69QsPhG4paFAvsNO3JHcbkqWXjsgVlFFj8xL0jl
LTcnKkdmg1MSWWKrA6k/AbLBEIH4eqwmJzbnjQjk22Cd3e/gybF5CGbYOBX5PZy0
R0PqY98Rb+lbjB789kM/EyEc9XcmvTS+AliWkIUrtGWl5M87EgmZbmwIPsohe1jG
gY1rAaUV/Dxe29xubMmXzFPIOtMht2j9kZZhRqR3TWUMZc27F1ZKTmC5+7IZmOtz
5qaJp8X4iQ/Jh1p7Jm3zdu6rKweUQZY/vWXtnO7pVzxSXClRrnnQm2IrDqqC+5S6
nOhe+qdvsH9gKzqmXWst
-----END CERTIFICATE-----
