Certificate:
    Data:
        Version: 3 (0x2)
        Serial Number:
            07:27:0e:b7:94:82:47:1a:93:ea:d1:82:51:29:99:f4:39:2e:11:e6
        Signature Algorithm: sha256WithRSAEncryption
        Issuer: C=cu, ST=La Habana, O=Othar Entrega SURL, OU=Entregas, CN=pop.othar.cu/emailAddress=admin@othar.cu
        Validity
            Not Before: Oct 20 02:27:00 2022 GMT
            Not After : Oct 20 02:27:00 2023 GMT
        Subject: C=cu, ST=La Habana, L=Plaza, O=Othar Entrega SURL, OU=Entregas, CN=pop.othar.cu/emailAddress=admin@othar.cu
        Subject Public Key Info:
            Public Key Algorithm: rsaEncryption
                RSA Public-Key: (2048 bit)
                Modulus:
                    00:d0:87:2c:b0:83:56:0e:09:b6:50:cb:e0:cc:22:
                    02:21:1b:24:4c:55:54:b0:9b:8e:52:47:9c:86:1d:
                    95:a4:42:97:fc:42:88:3d:53:52:db:53:d5:96:9f:
                    b1:4a:5c:fd:72:e0:01:f6:3f:24:f8:c7:b4:ac:12:
                    3d:1e:3c:12:66:2f:41:aa:1f:37:21:94:5c:3d:a0:
                    5f:4b:3d:13:ae:31:00:97:b8:a9:c0:38:29:0a:71:
                    cd:38:cd:64:fe:6e:61:f0:a2:ea:61:62:06:39:1e:
                    78:c1:26:d2:b5:7e:62:fe:89:13:da:9d:dd:a4:44:
                    61:12:cc:ba:7c:9d:f6:bb:71:68:a9:ad:53:21:10:
                    a8:cc:9b:02:8d:1e:a1:7a:c4:6b:68:b7:24:5d:90:
                    e4:4e:06:3d:e0:74:3b:b5:8e:d5:38:c6:36:39:f9:
                    c6:d1:cb:5f:b7:75:fd:68:31:e9:2d:ba:62:f0:fd:
                    cb:21:c3:b3:a9:69:50:15:a8:44:37:16:50:f3:ee:
                    1c:99:a2:81:9e:ff:b4:2f:3b:ff:94:ec:00:d5:6a:
                    77:28:2a:2e:54:94:0f:19:0e:98:da:43:4e:e0:ee:
                    19:25:25:86:4f:c9:42:0f:50:f6:e2:79:0f:33:84:
                    04:88:b1:01:88:d5:b2:5c:95:1a:e1:7b:3b:19:23:
                    2e:91
                Exponent: 65537 (0x10001)
        X509v3 extensions:
            X509v3 Basic Constraints: 
                CA:FALSE
            Netscape Comment: 
                OpenSSL Generated Certificate
            X509v3 Subject Key Identifier: 
                B7:81:79:A6:3F:9F:D3:BB:CD:4C:2D:A5:18:6F:D2:0F:2E:8E:0A:F7
            X509v3 Authority Key Identifier: 
                keyid:FF:95:08:B7:0A:05:FD:1A:7A:AF:E7:3D:58:B1:C4:0A:27:6F:D9:83

    Signature Algorithm: sha256WithRSAEncryption
         0c:f0:42:bc:40:26:23:ad:e8:19:7d:eb:31:13:90:af:6f:0a:
         26:d6:12:f0:b5:75:ab:aa:50:ae:63:58:fd:d3:2a:4f:e2:2e:
         82:c1:f3:0d:4f:cb:92:62:4b:49:5f:b9:ce:9f:59:af:8d:be:
         15:16:56:b5:52:c2:a1:52:62:1c:83:e2:e8:58:5e:c6:c5:ab:
         9e:29:1f:ec:f3:b2:74:3c:5d:19:b1:2e:59:f4:c9:3b:50:3e:
         88:b1:e2:39:67:f0:11:48:9e:36:a3:3a:17:3b:c7:78:19:d8:
         b9:0b:8b:b5:e8:23:5a:f8:72:62:b6:06:ed:9e:88:53:76:d8:
         67:f8:2e:fd:c4:05:86:2f:ff:60:94:87:c2:57:14:dd:b4:0e:
         c1:4a:94:a9:45:02:00:37:52:01:1b:87:35:f2:a6:6f:40:e3:
         7e:7b:fd:bc:ee:23:a7:c1:4e:91:24:c3:4f:08:6b:3a:b7:b7:
         57:46:86:20:20:47:83:e0:84:9d:90:fe:a5:9e:88:81:3e:e2:
         ee:34:a3:0b:9d:76:ec:2c:c8:a3:6a:30:be:04:c7:96:e4:28:
         7d:86:ea:82:0a:3c:81:3a:ae:bd:17:43:9d:69:9a:33:4f:ad:
         a8:22:a1:9b:3e:3f:fe:1e:47:4b:7b:a0:9f:cc:c2:86:78:93:
         4a:c2:58:b9
-----BEGIN CERTIFICATE-----
MIIEKTCCAxGgAwIBAgIUBycOt5SCRxqT6tGCUSmZ9DkuEeYwDQYJKoZIhvcNAQEL
BQAwgYcxCzAJBgNVBAYTAmN1MRIwEAYDVQQIDAlMYSBIYWJhbmExGzAZBgNVBAoM
Ek90aGFyIEVudHJlZ2EgU1VSTDERMA8GA1UECwwIRW50cmVnYXMxFTATBgNVBAMM
DHBvcC5vdGhhci5jdTEdMBsGCSqGSIb3DQEJARYOYWRtaW5Ab3RoYXIuY3UwHhcN
MjIxMDIwMDIyNzAwWhcNMjMxMDIwMDIyNzAwWjCBlzELMAkGA1UEBhMCY3UxEjAQ
BgNVBAgMCUxhIEhhYmFuYTEOMAwGA1UEBwwFUGxhemExGzAZBgNVBAoMEk90aGFy
IEVudHJlZ2EgU1VSTDERMA8GA1UECwwIRW50cmVnYXMxFTATBgNVBAMMDHBvcC5v
dGhhci5jdTEdMBsGCSqGSIb3DQEJARYOYWRtaW5Ab3RoYXIuY3UwggEiMA0GCSqG
SIb3DQEBAQUAA4IBDwAwggEKAoIBAQDQhyywg1YOCbZQy+DMIgIhGyRMVVSwm45S
R5yGHZWkQpf8Qog9U1LbU9WWn7FKXP1y4AH2PyT4x7SsEj0ePBJmL0GqHzchlFw9
oF9LPROuMQCXuKnAOCkKcc04zWT+bmHwouphYgY5HnjBJtK1fmL+iRPand2kRGES
zLp8nfa7cWiprVMhEKjMmwKNHqF6xGtotyRdkOROBj3gdDu1jtU4xjY5+cbRy1+3
df1oMektumLw/cshw7OpaVAVqEQ3FlDz7hyZooGe/7QvO/+U7ADVancoKi5UlA8Z
DpjaQ07g7hklJYZPyUIPUPbieQ8zhASIsQGI1bJclRrhezsZIy6RAgMBAAGjezB5
MAkGA1UdEwQCMAAwLAYJYIZIAYb4QgENBB8WHU9wZW5TU0wgR2VuZXJhdGVkIENl
cnRpZmljYXRlMB0GA1UdDgQWBBS3gXmmP5/Tu81MLaUYb9IPLo4K9zAfBgNVHSME
GDAWgBT/lQi3CgX9Gnqv5z1YscQKJ2/ZgzANBgkqhkiG9w0BAQsFAAOCAQEADPBC
vEAmI63oGX3rMROQr28KJtYS8LV1q6pQrmNY/dMqT+IugsHzDU/LkmJLSV+5zp9Z
r42+FRZWtVLCoVJiHIPi6FhexsWrnikf7POydDxdGbEuWfTJO1A+iLHiOWfwEUie
NqM6FzvHeBnYuQuLtegjWvhyYrYG7Z6IU3bYZ/gu/cQFhi//YJSHwlcU3bQOwUqU
qUUCADdSARuHNfKmb0Djfnv9vO4jp8FOkSTDTwhrOre3V0aGICBHg+CEnZD+pZ6I
gT7i7jSjC5127CzIo2owvgTHluQofYbqggo8gTquvRdDnWmaM0+tqCKhmz4//h5H
S3ugn8zChniTSsJYuQ==
-----END CERTIFICATE-----
