Certificate:
    Data:
        Version: 3 (0x2)
        Serial Number:
            02:3b:ad:07:d4:40:6f:16:95:e2:41:8a:22:3e:da:09:ec:b2:98:2d
        Signature Algorithm: sha256WithRSAEncryption
        Issuer: C=cu, ST=La Habana, O=PYME, OU=TI, CN=pop.mycubantrip.com/emailAddress=admin@mycubantrip.com
        Validity
            Not Before: Jul 22 18:11:01 2022 GMT
            Not After : Jul 21 18:11:01 2025 GMT
        Subject: C=cu, ST=La Habana, O=PYME, OU=TI, CN=pop.mycubantrip.com/emailAddress=admin@mycubantrip.com
        Subject Public Key Info:
            Public Key Algorithm: rsaEncryption
                RSA Public-Key: (2048 bit)
                Modulus:
                    00:ad:a5:23:ab:09:fe:53:dd:83:49:e4:ab:93:0e:
                    17:97:4f:62:f4:69:9a:d9:66:c5:d3:94:14:f8:35:
                    f2:08:13:b4:ff:6b:8a:5b:92:a8:04:65:dd:80:6b:
                    23:1e:47:40:ff:09:62:23:14:da:01:46:7d:14:d0:
                    f8:dd:61:e2:c5:7b:70:83:f1:23:43:9e:b0:cb:f5:
                    95:77:85:a7:8b:34:61:74:5b:5c:6c:d7:b6:e6:b7:
                    39:d4:28:68:20:a1:f2:b2:fc:16:92:ec:70:33:f2:
                    f9:f9:b2:93:aa:12:1d:33:b4:5d:33:45:4c:b7:ec:
                    62:4d:e8:fd:28:87:89:93:25:d3:e8:4f:9c:0c:ff:
                    17:e2:87:94:d4:71:fb:02:ae:6e:6f:0c:20:32:33:
                    49:46:11:47:00:82:79:ef:f6:0a:2b:5f:14:e1:64:
                    61:39:42:e9:ce:7f:d5:ac:17:4c:3a:dd:22:dd:c7:
                    67:b2:a1:ee:17:a1:f3:f5:04:73:cd:d9:f4:46:3b:
                    97:1e:76:c0:69:fe:23:ce:a4:31:d8:ba:63:51:1d:
                    d7:b3:67:2c:0a:21:56:f1:e0:41:be:a4:71:81:56:
                    6d:28:0c:0b:63:1d:6c:36:93:45:c8:f0:ec:7d:6b:
                    35:37:14:9c:1b:66:87:18:d1:b9:71:53:95:c3:35:
                    4e:31
                Exponent: 65537 (0x10001)
        X509v3 extensions:
            X509v3 Subject Key Identifier: 
                05:53:A4:B3:19:33:E7:EB:B4:50:A5:83:F7:CE:17:05:14:A6:05:1B
            X509v3 Authority Key Identifier: 
                keyid:05:53:A4:B3:19:33:E7:EB:B4:50:A5:83:F7:CE:17:05:14:A6:05:1B

            X509v3 Basic Constraints: critical
                CA:TRUE
    Signature Algorithm: sha256WithRSAEncryption
         69:6d:ef:12:54:49:9e:67:74:0f:c8:b4:00:8f:27:f3:1d:2e:
         a6:57:38:7c:13:59:13:b5:ce:a0:ae:bf:0a:70:b6:d4:89:7f:
         c0:b3:98:0a:3d:5b:b2:75:4c:37:4a:d1:bd:18:d5:e9:61:21:
         2b:a8:32:c5:da:89:28:be:39:6e:ec:a5:aa:02:42:06:5e:3c:
         68:e5:7e:2a:cd:08:27:77:f5:f6:d5:f9:42:b4:95:ed:68:69:
         44:79:74:42:72:f7:93:b8:97:ae:42:0d:f7:06:68:16:16:fb:
         ea:d4:24:f4:b4:7f:9c:49:13:39:b9:a3:88:b6:86:33:ff:3c:
         ce:1a:d4:16:be:d0:16:73:dd:8c:e1:30:48:d0:7d:f5:c9:6c:
         06:28:81:86:a5:f9:0d:9b:e0:62:71:55:c1:80:97:46:68:19:
         02:5f:5b:ac:4e:4d:d8:8d:3f:08:8b:e6:9f:fd:05:82:66:e5:
         76:84:38:af:38:88:d9:df:fe:b1:e2:80:52:47:a9:d2:15:ed:
         53:b0:c5:c0:90:ac:ef:49:af:37:89:86:41:c2:fe:34:aa:70:
         2c:1f:cc:81:a4:0a:07:41:10:02:f5:1f:9a:9e:b1:c7:82:59:
         47:ac:e9:11:14:ca:62:1a:39:f8:00:73:b9:07:09:6f:99:f3:
         a2:0d:63:73
-----BEGIN CERTIFICATE-----
MIID5TCCAs2gAwIBAgIUAjutB9RAbxaV4kGKIj7aCeyymC0wDQYJKoZIhvcNAQEL
BQAwgYExCzAJBgNVBAYTAmN1MRIwEAYDVQQIDAlMYSBIYWJhbmExDTALBgNVBAoM
BFBZTUUxCzAJBgNVBAsMAlRJMRwwGgYDVQQDDBNwb3AubXljdWJhbnRyaXAuY29t
MSQwIgYJKoZIhvcNAQkBFhVhZG1pbkBteWN1YmFudHJpcC5jb20wHhcNMjIwNzIy
MTgxMTAxWhcNMjUwNzIxMTgxMTAxWjCBgTELMAkGA1UEBhMCY3UxEjAQBgNVBAgM
CUxhIEhhYmFuYTENMAsGA1UECgwEUFlNRTELMAkGA1UECwwCVEkxHDAaBgNVBAMM
E3BvcC5teWN1YmFudHJpcC5jb20xJDAiBgkqhkiG9w0BCQEWFWFkbWluQG15Y3Vi
YW50cmlwLmNvbTCCASIwDQYJKoZIhvcNAQEBBQADggEPADCCAQoCggEBAK2lI6sJ
/lPdg0nkq5MOF5dPYvRpmtlmxdOUFPg18ggTtP9riluSqARl3YBrIx5HQP8JYiMU
2gFGfRTQ+N1h4sV7cIPxI0OesMv1lXeFp4s0YXRbXGzXtua3OdQoaCCh8rL8FpLs
cDPy+fmyk6oSHTO0XTNFTLfsYk3o/SiHiZMl0+hPnAz/F+KHlNRx+wKubm8MIDIz
SUYRRwCCee/2CitfFOFkYTlC6c5/1awXTDrdIt3HZ7Kh7heh8/UEc83Z9EY7lx52
wGn+I86kMdi6Y1Ed17NnLAohVvHgQb6kcYFWbSgMC2MdbDaTRcjw7H1rNTcUnBtm
hxjRuXFTlcM1TjECAwEAAaNTMFEwHQYDVR0OBBYEFAVTpLMZM+frtFClg/fOFwUU
pgUbMB8GA1UdIwQYMBaAFAVTpLMZM+frtFClg/fOFwUUpgUbMA8GA1UdEwEB/wQF
MAMBAf8wDQYJKoZIhvcNAQELBQADggEBAGlt7xJUSZ5ndA/ItACPJ/MdLqZXOHwT
WRO1zqCuvwpwttSJf8CzmAo9W7J1TDdK0b0Y1elhISuoMsXaiSi+OW7spaoCQgZe
PGjlfirNCCd39fbV+UK0le1oaUR5dEJy95O4l65CDfcGaBYW++rUJPS0f5xJEzm5
o4i2hjP/PM4a1Ba+0BZz3YzhMEjQffXJbAYogYal+Q2b4GJxVcGAl0ZoGQJfW6xO
TdiNPwiL5p/9BYJm5XaEOK84iNnf/rHigFJHqdIV7VOwxcCQrO9JrzeJhkHC/jSq
cCwfzIGkCgdBEAL1H5qesceCWUes6REUymIaOfgAc7kHCW+Z86INY3M=
-----END CERTIFICATE-----
